target datalayout = "e-m:e-p270:32:32-p271:32:32-p272:64:64-i64:64-i128:128-f80:128-n8:16:32:64-S128"
target triple = "x86_64-pc-linux-gnu"

@.str.16 = private unnamed_addr constant [8 x i8] c"preload\00", align 1
@.str.24 = private unnamed_addr constant [13 x i8] c"luaJIT_BC_%s\00", align 1
@.str.26 = private unnamed_addr constant [2 x i8] c"-\00", align 1
@.str.27 = private unnamed_addr constant [2 x i8] c".\00", align 1
@.str.28 = private unnamed_addr constant [2 x i8] c"_\00", align 1
@.str.35 = private unnamed_addr constant [34 x i8] c"'package.preload' must be a table\00", align 1
@.str.36 = private unnamed_addr constant [33 x i8] c"\0A\09no field package.preload['%s']\00", align 1

; Function Attrs: nounwind uwtable
define internal ptr @ll_bcsym(ptr noundef %0, ptr noundef %1) #0 {
  %3 = alloca ptr, align 8
  %4 = alloca ptr, align 8
  store ptr %0, ptr %3, align 8, !tbaa !11
  store ptr %1, ptr %4, align 8, !tbaa !14
  %5 = load ptr, ptr %3, align 8, !tbaa !11
  %6 = load ptr, ptr %4, align 8, !tbaa !14
  %7 = call ptr @dlsym(ptr noundef %5, ptr noundef %6) #5
  ret ptr %7
}

; Function Attrs: nounwind uwtable
define internal ptr @mksymname(ptr noundef %0, ptr noundef %1, ptr noundef %2) #0 {
  %4 = alloca ptr, align 8
  %5 = alloca ptr, align 8
  %6 = alloca ptr, align 8
  %7 = alloca ptr, align 8
  %8 = alloca ptr, align 8
  store ptr %0, ptr %4, align 8, !tbaa !4
  store ptr %1, ptr %5, align 8, !tbaa !14
  store ptr %2, ptr %6, align 8, !tbaa !14
  call void @llvm.lifetime.start.p0(i64 8, ptr %7) #5
  call void @llvm.lifetime.start.p0(i64 8, ptr %8) #5
  %9 = load ptr, ptr %5, align 8, !tbaa !14
  %10 = load i8, ptr @.str.26, align 1, !tbaa !16
  %11 = sext i8 %10 to i32
  %12 = call ptr @strchr(ptr noundef %9, i32 noundef %11) #6
  store ptr %12, ptr %8, align 8, !tbaa !14
  %13 = load ptr, ptr %8, align 8, !tbaa !14
  %14 = icmp ne ptr %13, null
  br i1 %14, label %15, label %18

15:                                               ; preds = %3
  %16 = load ptr, ptr %8, align 8, !tbaa !14
  %17 = getelementptr inbounds i8, ptr %16, i64 1
  store ptr %17, ptr %5, align 8, !tbaa !14
  br label %18

18:                                               ; preds = %15, %3
  %19 = load ptr, ptr %4, align 8, !tbaa !4
  %20 = load ptr, ptr %5, align 8, !tbaa !14
  %21 = call ptr @luaL_gsub(ptr noundef %19, ptr noundef %20, ptr noundef @.str.27, ptr noundef @.str.28)
  store ptr %21, ptr %7, align 8, !tbaa !14
  %22 = load ptr, ptr %4, align 8, !tbaa !4
  %23 = load ptr, ptr %6, align 8, !tbaa !14
  %24 = load ptr, ptr %7, align 8, !tbaa !14
  %25 = call ptr (ptr, ptr, ...) @lua_pushfstring(ptr noundef %22, ptr noundef %23, ptr noundef %24)
  store ptr %25, ptr %7, align 8, !tbaa !14
  %26 = load ptr, ptr %4, align 8, !tbaa !4
  call void @lua_remove(ptr noundef %26, i32 noundef -2)
  %27 = load ptr, ptr %7, align 8, !tbaa !14
  call void @llvm.lifetime.end.p0(i64 8, ptr %8) #5
  call void @llvm.lifetime.end.p0(i64 8, ptr %7) #5
  ret ptr %27
}

; Function Attrs: nounwind uwtable
define internal i32 @lj_cf_package_loader_preload(ptr noundef %0) #0 {
  %2 = alloca ptr, align 8
  %3 = alloca ptr, align 8
  %4 = alloca ptr, align 8
  %5 = alloca ptr, align 8
  store ptr %0, ptr %2, align 8, !tbaa !4
  call void @llvm.lifetime.start.p0(i64 8, ptr %3) #5
  %6 = load ptr, ptr %2, align 8, !tbaa !4
  %7 = call ptr @luaL_checklstring(ptr noundef %6, i32 noundef 1, ptr noundef null)
  store ptr %7, ptr %3, align 8, !tbaa !14
  %8 = load ptr, ptr %2, align 8, !tbaa !4
  call void @lua_getfield(ptr noundef %8, i32 noundef -10001, ptr noundef @.str.16)
  %9 = load ptr, ptr %2, align 8, !tbaa !4
  %10 = call i32 @lua_type(ptr noundef %9, i32 noundef -1)
  %11 = icmp eq i32 %10, 5
  br i1 %11, label %15, label %12

12:                                               ; preds = %1
  %13 = load ptr, ptr %2, align 8, !tbaa !4
  %14 = call i32 (ptr, ptr, ...) @luaL_error(ptr noundef %13, ptr noundef @.str.35)
  br label %15

15:                                               ; preds = %12, %1
  %16 = load ptr, ptr %2, align 8, !tbaa !4
  %17 = load ptr, ptr %3, align 8, !tbaa !14
  call void @lua_getfield(ptr noundef %16, i32 noundef -1, ptr noundef %17)
  %18 = load ptr, ptr %2, align 8, !tbaa !4
  %19 = call i32 @lua_type(ptr noundef %18, i32 noundef -1)
  %20 = icmp eq i32 %19, 0
  br i1 %20, label %21, label %40

21:                                               ; preds = %15
  call void @llvm.lifetime.start.p0(i64 8, ptr %4) #5
  %22 = load ptr, ptr %2, align 8, !tbaa !4
  %23 = load ptr, ptr %3, align 8, !tbaa !14
  %24 = call ptr @mksymname(ptr noundef %22, ptr noundef %23, ptr noundef @.str.24)
  store ptr %24, ptr %4, align 8, !tbaa !14
  call void @llvm.lifetime.start.p0(i64 8, ptr %5) #5
  %25 = load ptr, ptr %4, align 8, !tbaa !14
  %26 = call ptr @ll_bcsym(ptr noundef null, ptr noundef %25)
  store ptr %26, ptr %5, align 8, !tbaa !14
  %27 = load ptr, ptr %5, align 8, !tbaa !14
  %28 = icmp eq ptr %27, null
  br i1 %28, label %35, label %29

29:                                               ; preds = %21
  %30 = load ptr, ptr %2, align 8, !tbaa !4
  %31 = load ptr, ptr %5, align 8, !tbaa !14
  %32 = load ptr, ptr %3, align 8, !tbaa !14
  %33 = call i32 @luaL_loadbuffer(ptr noundef %30, ptr noundef %31, i64 noundef -1, ptr noundef %32)
  %34 = icmp ne i32 %33, 0
  br i1 %34, label %35, label %39

35:                                               ; preds = %29, %21
  %36 = load ptr, ptr %2, align 8, !tbaa !4
  %37 = load ptr, ptr %3, align 8, !tbaa !14
  %38 = call ptr (ptr, ptr, ...) @lua_pushfstring(ptr noundef %36, ptr noundef @.str.36, ptr noundef %37)
  br label %39

39:                                               ; preds = %35, %29
  call void @llvm.lifetime.end.p0(i64 8, ptr %5) #5
  call void @llvm.lifetime.end.p0(i64 8, ptr %4) #5
  br label %40

40:                                               ; preds = %39, %15
  call void @llvm.lifetime.end.p0(i64 8, ptr %3) #5
  ret i32 1
}