; Function Attrs: nounwind uwtable
define internal noundef i32 @lj_cf_package_loader_preload(ptr noundef %0) #0 {
  %2 = tail call ptr @luaL_checklstring(ptr noundef %0, i32 noundef 1, ptr noundef null) #7
  tail call void @lua_getfield(ptr noundef %0, i32 noundef -10001, ptr noundef nonnull @.str.16) #7
  %3 = tail call i32 @lua_type(ptr noundef %0, i32 noundef -1) #7
  %4 = icmp eq i32 %3, 5
  br i1 %4, label %7, label %5

5:                                                ; preds = %1
  %6 = tail call i32 (ptr, ptr, ...) @luaL_error(ptr noundef %0, ptr noundef nonnull @.str.35) #7
  br label %7

7:                                                ; preds = %5, %1
  tail call void @lua_getfield(ptr noundef %0, i32 noundef -1, ptr noundef %2) #7
  %8 = tail call i32 @lua_type(ptr noundef %0, i32 noundef -1) #7
  %9 = icmp eq i32 %8, 0
  br i1 %9, label %10, label %21

10:                                               ; preds = %7
  %11 = tail call ptr @strchr(ptr noundef nonnull dereferenceable(1) %2, i32 noundef 45) #8
  %.not.i = icmp eq ptr %11, null
  %12 = getelementptr inbounds nuw i8, ptr %11, i64 1
  %spec.select.i = select i1 %.not.i, ptr %2, ptr %12
  %13 = tail call ptr @luaL_gsub(ptr noundef %0, ptr noundef nonnull %spec.select.i, ptr noundef nonnull @.str.27, ptr noundef nonnull @.str.28) #7
  %14 = tail call ptr (ptr, ptr, ...) @lua_pushfstring(ptr noundef %0, ptr noundef nonnull @.str.24, ptr noundef %13) #7
  tail call void @lua_remove(ptr noundef %0, i32 noundef -2) #7
  %15 = tail call ptr @dlsym(ptr noundef null, ptr noundef %14) #7
  %16 = icmp eq ptr %15, null
  br i1 %16, label %19, label %17

17:                                               ; preds = %10
  %18 = tail call i32 @luaL_loadbuffer(ptr noundef %0, ptr noundef nonnull %15, i64 noundef -1, ptr noundef nonnull %2) #7
  %.not = icmp eq i32 %18, 0
  br i1 %.not, label %21, label %19

19:                                               ; preds = %17, %10
  %20 = tail call ptr (ptr, ptr, ...) @lua_pushfstring(ptr noundef %0, ptr noundef nonnull @.str.36, ptr noundef nonnull %2) #7
  br label %21

21:                                               ; preds = %17, %19, %7
  ret i32 1
}